target datalayout = "e-m:e-p270:32:32-p271:32:32-p272:64:64-i64:64-i128:128-f80:128-n8:16:32:64-S128"
target triple = "x86_64-pc-linux-gnu"

%struct.IDAMemRec = type { double, ptr, ptr, i32, double, double, ptr, i32, ptr, ptr, i32, ptr, ptr, i32, i32, double, double, ptr, i32, i32, i32, ptr, ptr, i32, ptr, ptr, ptr, i32, double, i32, i32, double, ptr, ptr, i32, ptr, ptr, i32, i32, i32, double, ptr, ptr, [6 x ptr], [6 x double], [6 x double], [6 x double], [6 x double], [6 x double], ptr, ptr, ptr, ptr, ptr, ptr, ptr, ptr, ptr, ptr, ptr, ptr, ptr, ptr, ptr, [6 x ptr], ptr, ptr, ptr, ptr, [6 x ptr], ptr, ptr, ptr, ptr, ptr, ptr, ptr, ptr, ptr, ptr, ptr, ptr, ptr, ptr, [6 x ptr], ptr, ptr, ptr, ptr, ptr, double, ptr, ptr, i32, i32, i32, i32, i32, i32, i32, double, double, double, i32, double, i32, i32, i32, i32, double, double, double, double, double, double, double, double, double, double, double, double, double, double, i32, i32, i32, i32, i32, i64, double, i32, i64, i64, i64, i64, i64, i64, i64, i64, i64, i64, i64, i64, i64, i64, i64, i64, i64, i64, i64, i64, i64, i64, i64, i64, ptr, ptr, ptr, i32, i32, i32, i32, i32, i32, i32, i32, i32, i32, i32, i32, i32, ptr, ptr, ptr, ptr, ptr, ptr, i32, i32, i32, i32, i32, i32, double, double, double, ptr, i32, ptr, ptr, double, double, double, ptr, ptr, ptr, double, double, i32, i32, i64, ptr, i32, i32, ptr, i32 }
%struct.IDADlsMemRec = type { i32, i64, i64, i64, i64, i32, ptr, ptr, ptr, ptr, ptr, ptr, i64, i64, i64 }

@.str = private unnamed_addr constant [10 x i8] c"IDASDENSE\00", align 1
@.str.9 = private unnamed_addr constant [14 x i8] c"IDADenseSetup\00", align 1
@.str.10 = private unnamed_addr constant [56 x i8] c"The Jacobian routine failed in an unrecoverable manner.\00", align 1

; Function Attrs: nounwind uwtable
define internal i32 @IDADenseSetup(ptr noundef %0, ptr noundef %1, ptr noundef %2, ptr noundef %3, ptr noundef %4, ptr noundef %5, ptr noundef %6) #0 {
  %8 = alloca i32, align 4
  %9 = alloca ptr, align 8
  %10 = alloca ptr, align 8
  %11 = alloca ptr, align 8
  %12 = alloca ptr, align 8
  %13 = alloca ptr, align 8
  %14 = alloca ptr, align 8
  %15 = alloca ptr, align 8
  %16 = alloca i32, align 4
  %17 = alloca i64, align 8
  %18 = alloca ptr, align 8
  %19 = alloca i32, align 4
  store ptr %0, ptr %9, align 8, !tbaa !9
  store ptr %1, ptr %10, align 8, !tbaa !51
  store ptr %2, ptr %11, align 8, !tbaa !51
  store ptr %3, ptr %12, align 8, !tbaa !51
  store ptr %4, ptr %13, align 8, !tbaa !51
  store ptr %5, ptr %14, align 8, !tbaa !51
  store ptr %6, ptr %15, align 8, !tbaa !51
  call void @llvm.lifetime.start.p0(i64 4, ptr %16) #5
  call void @llvm.lifetime.start.p0(i64 8, ptr %17) #5
  call void @llvm.lifetime.start.p0(i64 8, ptr %18) #5
  %20 = load ptr, ptr %9, align 8, !tbaa !9
  %21 = getelementptr inbounds nuw %struct.IDAMemRec, ptr %20, i32 0, i32 176
  %22 = load ptr, ptr %21, align 8, !tbaa !47
  store ptr %22, ptr %18, align 8, !tbaa !33
  %23 = load ptr, ptr %18, align 8, !tbaa !33
  %24 = getelementptr inbounds nuw %struct.IDADlsMemRec, ptr %23, i32 0, i32 12
  %25 = load i64, ptr %24, align 8, !tbaa !48
  %26 = add nsw i64 %25, 1
  store i64 %26, ptr %24, align 8, !tbaa !48
  %27 = load ptr, ptr %18, align 8, !tbaa !33
  %28 = getelementptr inbounds nuw %struct.IDADlsMemRec, ptr %27, i32 0, i32 9
  %29 = load ptr, ptr %28, align 8, !tbaa !45
  call void @SetToZero(ptr noundef %29)
  %30 = load ptr, ptr %18, align 8, !tbaa !33
  %31 = getelementptr inbounds nuw %struct.IDADlsMemRec, ptr %30, i32 0, i32 6
  %32 = load ptr, ptr %31, align 8, !tbaa !40
  %33 = load ptr, ptr %18, align 8, !tbaa !33
  %34 = getelementptr inbounds nuw %struct.IDADlsMemRec, ptr %33, i32 0, i32 1
  %35 = load i64, ptr %34, align 8, !tbaa !44
  %36 = load ptr, ptr %9, align 8, !tbaa !9
  %37 = getelementptr inbounds nuw %struct.IDAMemRec, ptr %36, i32 0, i32 112
  %38 = load double, ptr %37, align 8, !tbaa !52
  %39 = load ptr, ptr %9, align 8, !tbaa !9
  %40 = getelementptr inbounds nuw %struct.IDAMemRec, ptr %39, i32 0, i32 114
  %41 = load double, ptr %40, align 8, !tbaa !53
  %42 = load ptr, ptr %10, align 8, !tbaa !51
  %43 = load ptr, ptr %11, align 8, !tbaa !51
  %44 = load ptr, ptr %12, align 8, !tbaa !51
  %45 = load ptr, ptr %18, align 8, !tbaa !33
  %46 = getelementptr inbounds nuw %struct.IDADlsMemRec, ptr %45, i32 0, i32 9
  %47 = load ptr, ptr %46, align 8, !tbaa !45
  %48 = load ptr, ptr %18, align 8, !tbaa !33
  %49 = getelementptr inbounds nuw %struct.IDADlsMemRec, ptr %48, i32 0, i32 8
  %50 = load ptr, ptr %49, align 8, !tbaa !41
  %51 = load ptr, ptr %13, align 8, !tbaa !51
  %52 = load ptr, ptr %14, align 8, !tbaa !51
  %53 = load ptr, ptr %15, align 8, !tbaa !51
  %54 = call i32 %32(i64 noundef %35, double noundef %38, double noundef %41, ptr noundef %42, ptr noundef %43, ptr noundef %44, ptr noundef %47, ptr noundef %50, ptr noundef %51, ptr noundef %52, ptr noundef %53)
  store i32 %54, ptr %16, align 4, !tbaa !28
  %55 = load i32, ptr %16, align 4, !tbaa !28
  %56 = icmp slt i32 %55, 0
  br i1 %56, label %57, label %61

57:                                               ; preds = %7
  %58 = load ptr, ptr %9, align 8, !tbaa !9
  call void (ptr, i32, ptr, ptr, ptr, ...) @IDAProcessError(ptr noundef %58, i32 noundef -5, ptr noundef @.str, ptr noundef @.str.9, ptr noundef @.str.10)
  %59 = load ptr, ptr %18, align 8, !tbaa !33
  %60 = getelementptr inbounds nuw %struct.IDADlsMemRec, ptr %59, i32 0, i32 14
  store i64 -5, ptr %60, align 8, !tbaa !42
  store i32 -1, ptr %8, align 4
  store i32 1, ptr %19, align 4
  br label %84

61:                                               ; preds = %7
  %62 = load i32, ptr %16, align 4, !tbaa !28
  %63 = icmp sgt i32 %62, 0
  br i1 %63, label %64, label %67

64:                                               ; preds = %61
  %65 = load ptr, ptr %18, align 8, !tbaa !33
  %66 = getelementptr inbounds nuw %struct.IDADlsMemRec, ptr %65, i32 0, i32 14
  store i64 -6, ptr %66, align 8, !tbaa !42
  store i32 1, ptr %8, align 4
  store i32 1, ptr %19, align 4
  br label %84

67:                                               ; preds = %61
  %68 = load ptr, ptr %18, align 8, !tbaa !33
  %69 = getelementptr inbounds nuw %struct.IDADlsMemRec, ptr %68, i32 0, i32 9
  %70 = load ptr, ptr %69, align 8, !tbaa !45
  %71 = load ptr, ptr %18, align 8, !tbaa !33
  %72 = getelementptr inbounds nuw %struct.IDADlsMemRec, ptr %71, i32 0, i32 11
  %73 = load ptr, ptr %72, align 8, !tbaa !46
  %74 = call i64 @DenseGETRF(ptr noundef %70, ptr noundef %73)
  store i64 %74, ptr %17, align 8, !tbaa !7
  %75 = load i64, ptr %17, align 8, !tbaa !7
  %76 = icmp ne i64 %75, 0
  br i1 %76, label %77, label %81

77:                                               ; preds = %67
  %78 = load i64, ptr %17, align 8, !tbaa !7
  %79 = load ptr, ptr %18, align 8, !tbaa !33
  %80 = getelementptr inbounds nuw %struct.IDADlsMemRec, ptr %79, i32 0, i32 14
  store i64 %78, ptr %80, align 8, !tbaa !42
  store i32 1, ptr %8, align 4
  store i32 1, ptr %19, align 4
  br label %84

81:                                               ; preds = %67
  %82 = load ptr, ptr %18, align 8, !tbaa !33
  %83 = getelementptr inbounds nuw %struct.IDADlsMemRec, ptr %82, i32 0, i32 14
  store i64 0, ptr %83, align 8, !tbaa !42
  store i32 0, ptr %8, align 4
  store i32 1, ptr %19, align 4
  br label %84

84:                                               ; preds = %81, %77, %64, %57
  call void @llvm.lifetime.end.p0(i64 8, ptr %18) #5
  call void @llvm.lifetime.end.p0(i64 8, ptr %17) #5
  call void @llvm.lifetime.end.p0(i64 4, ptr %16) #5
  %85 = load i32, ptr %8, align 4
  ret i32 %85
}