; Function Attrs: nounwind uwtable
define internal range(i32 -1, 2) i32 @IDADenseSetup(ptr noundef %0, ptr noundef %1, ptr noundef %2, ptr noundef %3, ptr noundef %4, ptr noundef %5, ptr noundef %6) #0 {
  %8 = getelementptr inbounds nuw i8, ptr %0, i64 1632
  %9 = load ptr, ptr %8, align 8, !tbaa !40
  %10 = getelementptr inbounds nuw i8, ptr %9, i64 96
  %11 = load i64, ptr %10, align 8, !tbaa !42
  %12 = add nsw i64 %11, 1
  store i64 %12, ptr %10, align 8, !tbaa !42
  %13 = getelementptr inbounds nuw i8, ptr %9, i64 72
  %14 = load ptr, ptr %13, align 8, !tbaa !38
  tail call void @SetToZero(ptr noundef %14) #7
  %15 = getelementptr inbounds nuw i8, ptr %9, i64 48
  %16 = load ptr, ptr %15, align 8, !tbaa !33
  %17 = getelementptr inbounds nuw i8, ptr %9, i64 8
  %18 = load i64, ptr %17, align 8, !tbaa !37
  %19 = getelementptr inbounds nuw i8, ptr %0, i64 1184
  %20 = load double, ptr %19, align 8, !tbaa !43
  %21 = getelementptr inbounds nuw i8, ptr %0, i64 1200
  %22 = load double, ptr %21, align 8, !tbaa !44
  %23 = load ptr, ptr %13, align 8, !tbaa !38
  %24 = getelementptr inbounds nuw i8, ptr %9, i64 64
  %25 = load ptr, ptr %24, align 8, !tbaa !34
  %26 = tail call i32 %16(i64 noundef %18, double noundef %20, double noundef %22, ptr noundef %1, ptr noundef %2, ptr noundef %3, ptr noundef %23, ptr noundef %25, ptr noundef %4, ptr noundef %5, ptr noundef %6) #7
  %27 = icmp slt i32 %26, 0
  br i1 %27, label %28, label %30

28:                                               ; preds = %7
  tail call void (ptr, i32, ptr, ptr, ptr, ...) @IDAProcessError(ptr noundef nonnull %0, i32 noundef -5, ptr noundef nonnull @.str, ptr noundef nonnull @.str.9, ptr noundef nonnull @.str.10) #7
  %29 = getelementptr inbounds nuw i8, ptr %9, i64 112
  store i64 -5, ptr %29, align 8, !tbaa !35
  br label %41

30:                                               ; preds = %7
  %.not = icmp eq i32 %26, 0
  br i1 %.not, label %33, label %31

31:                                               ; preds = %30
  %32 = getelementptr inbounds nuw i8, ptr %9, i64 112
  store i64 -6, ptr %32, align 8, !tbaa !35
  br label %41

33:                                               ; preds = %30
  %34 = load ptr, ptr %13, align 8, !tbaa !38
  %35 = getelementptr inbounds nuw i8, ptr %9, i64 88
  %36 = load ptr, ptr %35, align 8, !tbaa !39
  %37 = tail call i64 @DenseGETRF(ptr noundef %34, ptr noundef %36) #7
  %.not28 = icmp eq i64 %37, 0
  %38 = getelementptr inbounds nuw i8, ptr %9, i64 112
  br i1 %.not28, label %40, label %39

39:                                               ; preds = %33
  store i64 %37, ptr %38, align 8, !tbaa !35
  br label %41

40:                                               ; preds = %33
  store i64 0, ptr %38, align 8, !tbaa !35
  br label %41

41:                                               ; preds = %40, %39, %31, %28
  %.0 = phi i32 [ -1, %28 ], [ 1, %31 ], [ 1, %39 ], [ 0, %40 ]
  ret i32 %.0
}